; ModuleID = '38/1706.c'
source_filename = "38/1706.c"
target datalayout = "e-m:e-p270:32:32-p271:32:32-p272:64:64-i64:64-f80:128-n8:16:32:64-S128"
target triple = "x86_64-pc-linux-gnu"

@.str = private unnamed_addr constant [3 x i8] c"%d\00", align 1
@.str.1 = private unnamed_addr constant [4 x i8] c"%lf\00", align 1
@.str.2 = private unnamed_addr constant [7 x i8] c"%.5lf\0A\00", align 1

; Function Attrs: noinline nounwind uwtable
define dso_local i32 @main() #0 {
  %1 = alloca i32, align 4
  %2 = alloca i32, align 4
  %3 = alloca i32, align 4
  %4 = alloca i32, align 4
  %5 = alloca [100 x i32], align 16
  %6 = alloca [200 x double], align 16
  %7 = alloca double, align 8
  %8 = alloca double, align 8
  %9 = alloca double, align 8
  %10 = alloca [200 x double], align 16
  %11 = alloca double, align 8
  store i32 0, i32* %1, align 4
  store double 0.000000e+00, double* %7, align 8
  store double 0.000000e+00, double* %8, align 8
  %12 = call i32 (i8*, ...) @__isoc99_scanf(i8* getelementptr inbounds ([3 x i8], [3 x i8]* @.str, i64 0, i64 0), i32* %2)
  store i32 0, i32* %3, align 4
  br label %13

13:                                               ; preds = %90, %0
  %14 = load i32, i32* %3, align 4
  %15 = load i32, i32* %2, align 4
  %16 = icmp slt i32 %14, %15
  br i1 %16, label %17, label %93

17:                                               ; preds = %13
  %18 = load i32, i32* %3, align 4
  %19 = sext i32 %18 to i64
  %20 = getelementptr inbounds [100 x i32], [100 x i32]* %5, i64 0, i64 %19
  %21 = call i32 (i8*, ...) @__isoc99_scanf(i8* getelementptr inbounds ([3 x i8], [3 x i8]* @.str, i64 0, i64 0), i32* %20)
  store i32 0, i32* %4, align 4
  br label %22

22:                                               ; preds = %40, %17
  %23 = load i32, i32* %4, align 4
  %24 = load i32, i32* %3, align 4
  %25 = sext i32 %24 to i64
  %26 = getelementptr inbounds [100 x i32], [100 x i32]* %5, i64 0, i64 %25
  %27 = load i32, i32* %26, align 4
  %28 = icmp slt i32 %23, %27
  br i1 %28, label %29, label %43

29:                                               ; preds = %22
  %30 = load i32, i32* %4, align 4
  %31 = sext i32 %30 to i64
  %32 = getelementptr inbounds [200 x double], [200 x double]* %6, i64 0, i64 %31
  %33 = call i32 (i8*, ...) @__isoc99_scanf(i8* getelementptr inbounds ([4 x i8], [4 x i8]* @.str.1, i64 0, i64 0), double* %32)
  %34 = load i32, i32* %4, align 4
  %35 = sext i32 %34 to i64
  %36 = getelementptr inbounds [200 x double], [200 x double]* %6, i64 0, i64 %35
  %37 = load double, double* %36, align 8
  %38 = load double, double* %7, align 8
  %39 = fadd double %38, %37
  store double %39, double* %7, align 8
  br label %40

40:                                               ; preds = %29
  %41 = load i32, i32* %4, align 4
  %42 = add nsw i32 %41, 1
  store i32 %42, i32* %4, align 4
  br label %22

43:                                               ; preds = %22
  %44 = load double, double* %7, align 8
  %45 = load i32, i32* %3, align 4
  %46 = sext i32 %45 to i64
  %47 = getelementptr inbounds [100 x i32], [100 x i32]* %5, i64 0, i64 %46
  %48 = load i32, i32* %47, align 4
  %49 = sitofp i32 %48 to double
  %50 = fdiv double %44, %49
  store double %50, double* %11, align 8
  store i32 0, i32* %4, align 4
  br label %51

51:                                               ; preds = %75, %43
  %52 = load i32, i32* %4, align 4
  %53 = load i32, i32* %3, align 4
  %54 = sext i32 %53 to i64
  %55 = getelementptr inbounds [100 x i32], [100 x i32]* %5, i64 0, i64 %54
  %56 = load i32, i32* %55, align 4
  %57 = icmp slt i32 %52, %56
  br i1 %57, label %58, label %78

58:                                               ; preds = %51
  %59 = load i32, i32* %4, align 4
  %60 = sext i32 %59 to i64
  %61 = getelementptr inbounds [200 x double], [200 x double]* %6, i64 0, i64 %60
  %62 = load double, double* %61, align 8
  %63 = load double, double* %11, align 8
  %64 = fsub double %62, %63
  %65 = load i32, i32* %4, align 4
  %66 = sext i32 %65 to i64
  %67 = getelementptr inbounds [200 x double], [200 x double]* %6, i64 0, i64 %66
  %68 = load double, double* %67, align 8
  %69 = load double, double* %11, align 8
  %70 = fsub double %68, %69
  %71 = fmul double %64, %70
  store double %71, double* %9, align 8
  %72 = load double, double* %9, align 8
  %73 = load double, double* %8, align 8
  %74 = fadd double %73, %72
  store double %74, double* %8, align 8
  br label %75

75:                                               ; preds = %58
  %76 = load i32, i32* %4, align 4
  %77 = add nsw i32 %76, 1
  store i32 %77, i32* %4, align 4
  br label %51

78:                                               ; preds = %51
  %79 = load double, double* %8, align 8
  %80 = load i32, i32* %3, align 4
  %81 = sext i32 %80 to i64
  %82 = getelementptr inbounds [100 x i32], [100 x i32]* %5, i64 0, i64 %81
  %83 = load i32, i32* %82, align 4
  %84 = sitofp i32 %83 to double
  %85 = fdiv double %79, %84
  %86 = call double @sqrt(double %85) #3
  %87 = load i32, i32* %3, align 4
  %88 = sext i32 %87 to i64
  %89 = getelementptr inbounds [200 x double], [200 x double]* %10, i64 0, i64 %88
  store double %86, double* %89, align 8
  store double 0.000000e+00, double* %7, align 8
  store double 0.000000e+00, double* %8, align 8
  store double 0.000000e+00, double* %11, align 8
  br label %90

90:                                               ; preds = %78
  %91 = load i32, i32* %3, align 4
  %92 = add nsw i32 %91, 1
  store i32 %92, i32* %3, align 4
  br label %13

93:                                               ; preds = %13
  store i32 0, i32* %3, align 4
  br label %94

94:                                               ; preds = %104, %93
  %95 = load i32, i32* %3, align 4
  %96 = load i32, i32* %2, align 4
  %97 = icmp slt i32 %95, %96
  br i1 %97, label %98, label %107

98:                                               ; preds = %94
  %99 = load i32, i32* %3, align 4
  %100 = sext i32 %99 to i64
  %101 = getelementptr inbounds [200 x double], [200 x double]* %10, i64 0, i64 %100
  %102 = load double, double* %101, align 8
  %103 = call i32 (i8*, ...) @printf(i8* getelementptr inbounds ([7 x i8], [7 x i8]* @.str.2, i64 0, i64 0), double %102)
  br label %104

104:                                              ; preds = %98
  %105 = load i32, i32* %3, align 4
  %106 = add nsw i32 %105, 1
  store i32 %106, i32* %3, align 4
  br label %94

107:                                              ; preds = %94
  ret i32 0
}

declare dso_local i32 @__isoc99_scanf(i8*, ...) #1

; Function Attrs: nounwind
declare dso_local double @sqrt(double) #2

declare dso_local i32 @printf(i8*, ...) #1


!llvm.module.flags = !{!0}
!llvm.ident = !{!1}

!0 = !{i32 1, !"wchar_size", i32 4}
!1 = !{!"clang version 10.0.0-4ubuntu1 "}
